target datalayout = "e-m:e-p270:32:32-p271:32:32-p272:64:64-i64:64-i128:128-f80:128-n8:16:32:64-S128"
target triple = "x86_64-unknown-linux-gnu"

%struct.BlockDriverState = type { i32, i8, i8, i8, i8, i8, ptr, ptr, ptr, %struct.anon, i8, [4096 x i8], [4096 x i8], [4096 x i8], [16 x i8], ptr, [4096 x i8], %struct.BlockLimits, i32, i32, i32, i32, [32 x i8], %union.anon, %union.anon.0, %union.anon.1, i32, [16 x %struct.anon.2], ptr, %struct.anon.3, ptr, ptr, %struct.anon.4, ptr, ptr, i32, ptr, i64, i64, %struct.QemuMutex, %struct.anon.5, %struct.Stat64, i32, i32, i32, i32, i32, i32, %struct.QemuMutex, %struct.anon.6, %struct.CoQueue, i8, i32, i8, %struct.CoMutex, ptr, ptr }
%struct.anon = type { ptr }
%struct.BlockLimits = type { i32, i64, i32, i64, i32, i32, i32, i64, i32, i64, i64, i32, i8, i32, i32, i32, i32, i32, i32, i32 }
%union.anon = type { %struct.QTailQLink }
%struct.QTailQLink = type { ptr, ptr }
%union.anon.0 = type { %struct.QTailQLink }
%union.anon.1 = type { %struct.QTailQLink }
%struct.anon.2 = type { ptr }
%struct.anon.3 = type { ptr }
%struct.anon.4 = type { ptr }
%struct.anon.5 = type { ptr }
%struct.Stat64 = type { i64 }
%struct.QemuMutex = type { %union.pthread_mutex_t, i8 }
%union.pthread_mutex_t = type { %struct.__pthread_mutex_s }
%struct.__pthread_mutex_s = type { i32, i32, i32, i32, i32, i16, i16, %struct.__pthread_internal_list }
%struct.__pthread_internal_list = type { ptr, ptr }
%struct.anon.6 = type { ptr }
%struct.CoQueue = type { %struct.anon.7 }
%struct.anon.7 = type { ptr, ptr }
%struct.CoMutex = type { i32, ptr, %struct.anon.8, %struct.anon.8, i32, i32, ptr }
%struct.anon.8 = type { ptr }
%struct.BDRVQcow2State = type { i32, i32, i32, i32, i32, i32, i32, i32, i32, i32, i32, i32, i32, i32, i64, i64, ptr, ptr, ptr, ptr, i32, %struct.anon.9, ptr, i64, i32, i32, i64, i64, %struct.CoMutex, %struct.Qcow2CryptoHeaderExtension, ptr, ptr, i8, i32, i64, i32, i32, ptr, i32, i64, i64, i32, i32, i8, i32, i32, i64, ptr, ptr, [5 x i8], i8, i32, i8, i64, i64, i64, i64, ptr, %struct.anon.10, %union.anon.11, i8, ptr, ptr, ptr, %struct.CoQueue, i32, ptr, i8, i8, i32 }
%struct.anon.9 = type { ptr }
%struct.Qcow2CryptoHeaderExtension = type { i64, i64 }
%struct.anon.10 = type { ptr }
%union.anon.11 = type { %struct.QTailQLink }
%struct.QEMUIOVector = type { ptr, i32, %union.anon.16 }
%union.anon.16 = type { %struct.anon.17 }
%struct.anon.17 = type { i32, %struct.iovec }
%struct.iovec = type { ptr, i64 }
%struct.BdrvCheckResult = type { i32, i32, i32, i32, i32, i64, %struct.BlockFragInfo }
%struct.BlockFragInfo = type { i64, i64, i64, i64 }

@stderr = external global ptr, align 8
@.str.61 = private unnamed_addr constant [40 x i8] c"ERROR: I/O error in check_refcounts_l1\0A\00", align 1
@.str.62 = private unnamed_addr constant [50 x i8] c"ERROR found L1 entry with reserved bits set: %lx\0A\00", align 1
@.str.63 = private unnamed_addr constant [71 x i8] c"ERROR l2_offset=%lx: Table is not cluster aligned; L1 entry corrupted\0A\00", align 1

; Function Attrs: nounwind sspstrong uwtable
define internal void @g_autoptr_cleanup_generic_gfree(ptr noundef %p) #0 {
entry:
  %p.addr = alloca ptr, align 8
  %pp = alloca ptr, align 8
  store ptr %p, ptr %p.addr, align 8
  %0 = load ptr, ptr %p.addr, align 8
  store ptr %0, ptr %pp, align 8
  %1 = load ptr, ptr %pp, align 8
  %2 = load ptr, ptr %1, align 8
  call void @g_free(ptr noundef %2)
  ret void
}

; Function Attrs: nounwind sspstrong uwtable
define internal i64 @offset_into_cluster(ptr noundef %s, i64 noundef %offset) #0 {
entry:
  %s.addr = alloca ptr, align 8
  %offset.addr = alloca i64, align 8
  store ptr %s, ptr %s.addr, align 8
  store i64 %offset, ptr %offset.addr, align 8
  %0 = load i64, ptr %offset.addr, align 8
  %1 = load ptr, ptr %s.addr, align 8
  %cluster_size = getelementptr inbounds %struct.BDRVQcow2State, ptr %1, i32 0, i32 1
  %2 = load i32, ptr %cluster_size, align 4
  %sub = sub i32 %2, 1
  %conv = sext i32 %sub to i64
  %and = and i64 %0, %conv
  ret i64 %and
}

; Function Attrs: nounwind sspstrong uwtable
define internal void @be64_to_cpus(ptr noundef %p) #0 {
entry:
  %p.addr = alloca ptr, align 8
  store ptr %p, ptr %p.addr, align 8
  br label %do.body

do.body:                                          ; preds = %entry
  %0 = load ptr, ptr %p.addr, align 8
  %1 = load i64, ptr %0, align 8
  %2 = call i64 @llvm.bswap.i64(i64 %1)
  %3 = load ptr, ptr %p.addr, align 8
  store i64 %2, ptr %3, align 8
  br label %do.end

do.end:                                           ; preds = %do.body
  ret void
}

; Function Attrs: nounwind sspstrong uwtable
define internal i32 @bdrv_co_pread(ptr noundef %child, i64 noundef %offset, i64 noundef %bytes, ptr noundef %buf, i32 noundef %flags) #0 {
entry:
  %child.addr = alloca ptr, align 8
  %offset.addr = alloca i64, align 8
  %bytes.addr = alloca i64, align 8
  %buf.addr = alloca ptr, align 8
  %flags.addr = alloca i32, align 4
  %qiov = alloca %struct.QEMUIOVector, align 8
  store ptr %child, ptr %child.addr, align 8
  store i64 %offset, ptr %offset.addr, align 8
  store i64 %bytes, ptr %bytes.addr, align 8
  store ptr %buf, ptr %buf.addr, align 8
  store i32 %flags, ptr %flags.addr, align 4
  %iov = getelementptr inbounds %struct.QEMUIOVector, ptr %qiov, i32 0, i32 0
  %0 = getelementptr inbounds %struct.QEMUIOVector, ptr %qiov, i32 0, i32 2
  %local_iov = getelementptr inbounds %struct.anon.17, ptr %0, i32 0, i32 1
  store ptr %local_iov, ptr %iov, align 8
  %niov = getelementptr inbounds %struct.QEMUIOVector, ptr %qiov, i32 0, i32 1
  store i32 1, ptr %niov, align 8
  %1 = getelementptr inbounds %struct.QEMUIOVector, ptr %qiov, i32 0, i32 2
  %nalloc = getelementptr inbounds %struct.anon.17, ptr %1, i32 0, i32 0
  store i32 -1, ptr %nalloc, align 8
  %local_iov1 = getelementptr inbounds %struct.anon.17, ptr %1, i32 0, i32 1
  %iov_base = getelementptr inbounds %struct.iovec, ptr %local_iov1, i32 0, i32 0
  %2 = load ptr, ptr %buf.addr, align 8
  store ptr %2, ptr %iov_base, align 8
  %iov_len = getelementptr inbounds %struct.iovec, ptr %local_iov1, i32 0, i32 1
  %3 = load i64, ptr %bytes.addr, align 8
  store i64 %3, ptr %iov_len, align 8
  br label %do.body

do.body:                                          ; preds = %entry
  br label %do.end

do.end:                                           ; preds = %do.body
  call void @assert_bdrv_graph_readable()
  %4 = load ptr, ptr %child.addr, align 8
  %5 = load i64, ptr %offset.addr, align 8
  %6 = load i64, ptr %bytes.addr, align 8
  %7 = load i32, ptr %flags.addr, align 4
  %call = call i32 @bdrv_co_preadv(ptr noundef %4, i64 noundef %5, i64 noundef %6, ptr noundef %qiov, i32 noundef %7)
  ret i32 %call
}

; Function Attrs: nounwind sspstrong uwtable
define internal i32 @check_refcounts_l1(ptr noundef %bs, ptr noundef %res, ptr noundef %refcount_table, ptr noundef %refcount_table_size, i64 noundef %l1_table_offset, i32 noundef %l1_size, i32 noundef %flags, i32 noundef %fix, i1 noundef zeroext %active) #0 {
entry:
  %retval = alloca i32, align 4
  %bs.addr = alloca ptr, align 8
  %res.addr = alloca ptr, align 8
  %refcount_table.addr = alloca ptr, align 8
  %refcount_table_size.addr = alloca ptr, align 8
  %l1_table_offset.addr = alloca i64, align 8
  %l1_size.addr = alloca i32, align 4
  %flags.addr = alloca i32, align 4
  %fix.addr = alloca i32, align 4
  %active.addr = alloca i8, align 1
  %s = alloca ptr, align 8
  %l1_size_bytes = alloca i64, align 8
  %l1_table = alloca ptr, align 8
  %l2_offset = alloca i64, align 8
  %i = alloca i32, align 4
  %ret = alloca i32, align 4
  %cleanup.dest.slot = alloca i32, align 4
  store ptr %bs, ptr %bs.addr, align 8
  store ptr %res, ptr %res.addr, align 8
  store ptr %refcount_table, ptr %refcount_table.addr, align 8
  store ptr %refcount_table_size, ptr %refcount_table_size.addr, align 8
  store i64 %l1_table_offset, ptr %l1_table_offset.addr, align 8
  store i32 %l1_size, ptr %l1_size.addr, align 4
  store i32 %flags, ptr %flags.addr, align 4
  store i32 %fix, ptr %fix.addr, align 4
  %frombool = zext i1 %active to i8
  store i8 %frombool, ptr %active.addr, align 1
  %0 = load ptr, ptr %bs.addr, align 8
  %opaque = getelementptr inbounds %struct.BlockDriverState, ptr %0, i32 0, i32 7
  %1 = load ptr, ptr %opaque, align 8
  store ptr %1, ptr %s, align 8
  %2 = load i32, ptr %l1_size.addr, align 4
  %conv = sext i32 %2 to i64
  %mul = mul i64 %conv, 8
  store i64 %mul, ptr %l1_size_bytes, align 8
  store ptr null, ptr %l1_table, align 8
  %3 = load i32, ptr %l1_size.addr, align 4
  %tobool = icmp ne i32 %3, 0
  br i1 %tobool, label %if.end, label %if.then

if.then:                                          ; preds = %entry
  store i32 0, ptr %retval, align 4
  store i32 1, ptr %cleanup.dest.slot, align 4
  br label %cleanup

if.end:                                           ; preds = %entry
  %4 = load ptr, ptr %bs.addr, align 8
  %5 = load ptr, ptr %res.addr, align 8
  %6 = load ptr, ptr %refcount_table.addr, align 8
  %7 = load ptr, ptr %refcount_table_size.addr, align 8
  %8 = load i64, ptr %l1_table_offset.addr, align 8
  %9 = load i64, ptr %l1_size_bytes, align 8
  %call = call i32 @qcow2_inc_refcounts_imrt(ptr noundef %4, ptr noundef %5, ptr noundef %6, ptr noundef %7, i64 noundef %8, i64 noundef %9)
  store i32 %call, ptr %ret, align 4
  %10 = load i32, ptr %ret, align 4
  %cmp = icmp slt i32 %10, 0
  br i1 %cmp, label %if.then2, label %if.end3

if.then2:                                         ; preds = %if.end
  %11 = load i32, ptr %ret, align 4
  store i32 %11, ptr %retval, align 4
  store i32 1, ptr %cleanup.dest.slot, align 4
  br label %cleanup

if.end3:                                          ; preds = %if.end
  %12 = load i64, ptr %l1_size_bytes, align 8
  %call4 = call noalias ptr @g_try_malloc(i64 noundef %12) #11
  store ptr %call4, ptr %l1_table, align 8
  %13 = load ptr, ptr %l1_table, align 8
  %cmp5 = icmp eq ptr %13, null
  br i1 %cmp5, label %if.then7, label %if.end8

if.then7:                                         ; preds = %if.end3
  %14 = load ptr, ptr %res.addr, align 8
  %check_errors = getelementptr inbounds %struct.BdrvCheckResult, ptr %14, i32 0, i32 2
  %15 = load i32, ptr %check_errors, align 8
  %inc = add i32 %15, 1
  store i32 %inc, ptr %check_errors, align 8
  store i32 -12, ptr %retval, align 4
  store i32 1, ptr %cleanup.dest.slot, align 4
  br label %cleanup

if.end8:                                          ; preds = %if.end3
  %16 = load ptr, ptr %bs.addr, align 8
  %file = getelementptr inbounds %struct.BlockDriverState, ptr %16, i32 0, i32 31
  %17 = load ptr, ptr %file, align 8
  %18 = load i64, ptr %l1_table_offset.addr, align 8
  %19 = load i64, ptr %l1_size_bytes, align 8
  %20 = load ptr, ptr %l1_table, align 8
  %call9 = call i32 @bdrv_co_pread(ptr noundef %17, i64 noundef %18, i64 noundef %19, ptr noundef %20, i32 noundef 0)
  store i32 %call9, ptr %ret, align 4
  %21 = load i32, ptr %ret, align 4
  %cmp10 = icmp slt i32 %21, 0
  br i1 %cmp10, label %if.then12, label %if.end16

if.then12:                                        ; preds = %if.end8
  %22 = load ptr, ptr @stderr, align 8
  %call13 = call i32 (ptr, ptr, ...) @fprintf(ptr noundef %22, ptr noundef @.str.61)
  %23 = load ptr, ptr %res.addr, align 8
  %check_errors14 = getelementptr inbounds %struct.BdrvCheckResult, ptr %23, i32 0, i32 2
  %24 = load i32, ptr %check_errors14, align 8
  %inc15 = add i32 %24, 1
  store i32 %inc15, ptr %check_errors14, align 8
  %25 = load i32, ptr %ret, align 4
  store i32 %25, ptr %retval, align 4
  store i32 1, ptr %cleanup.dest.slot, align 4
  br label %cleanup

if.end16:                                         ; preds = %if.end8
  store i32 0, ptr %i, align 4
  br label %for.cond

for.cond:                                         ; preds = %for.inc, %if.end16
  %26 = load i32, ptr %i, align 4
  %27 = load i32, ptr %l1_size.addr, align 4
  %cmp17 = icmp slt i32 %26, %27
  br i1 %cmp17, label %for.body, label %for.end

for.body:                                         ; preds = %for.cond
  %28 = load ptr, ptr %l1_table, align 8
  %29 = load i32, ptr %i, align 4
  %idxprom = sext i32 %29 to i64
  %arrayidx = getelementptr i64, ptr %28, i64 %idxprom
  call void @be64_to_cpus(ptr noundef %arrayidx)
  br label %for.inc

for.inc:                                          ; preds = %for.body
  %30 = load i32, ptr %i, align 4
  %inc19 = add i32 %30, 1
  store i32 %inc19, ptr %i, align 4
  br label %for.cond, !llvm.loop !53

for.end:                                          ; preds = %for.cond
  store i32 0, ptr %i, align 4
  br label %for.cond20

for.cond20:                                       ; preds = %for.inc60, %for.end
  %31 = load i32, ptr %i, align 4
  %32 = load i32, ptr %l1_size.addr, align 4
  %cmp21 = icmp slt i32 %31, %32
  br i1 %cmp21, label %for.body23, label %for.end62

for.body23:                                       ; preds = %for.cond20
  %33 = load ptr, ptr %l1_table, align 8
  %34 = load i32, ptr %i, align 4
  %idxprom24 = sext i32 %34 to i64
  %arrayidx25 = getelementptr i64, ptr %33, i64 %idxprom24
  %35 = load i64, ptr %arrayidx25, align 8
  %tobool26 = icmp ne i64 %35, 0
  br i1 %tobool26, label %if.end28, label %if.then27

if.then27:                                        ; preds = %for.body23
  br label %for.inc60

if.end28:                                         ; preds = %for.body23
  %36 = load ptr, ptr %l1_table, align 8
  %37 = load i32, ptr %i, align 4
  %idxprom29 = sext i32 %37 to i64
  %arrayidx30 = getelementptr i64, ptr %36, i64 %idxprom29
  %38 = load i64, ptr %arrayidx30, align 8
  %and = and i64 %38, 9151314442816848383
  %tobool31 = icmp ne i64 %and, 0
  br i1 %tobool31, label %if.then32, label %if.end37

if.then32:                                        ; preds = %if.end28
  %39 = load ptr, ptr @stderr, align 8
  %40 = load ptr, ptr %l1_table, align 8
  %41 = load i32, ptr %i, align 4
  %idxprom33 = sext i32 %41 to i64
  %arrayidx34 = getelementptr i64, ptr %40, i64 %idxprom33
  %42 = load i64, ptr %arrayidx34, align 8
  %call35 = call i32 (ptr, ptr, ...) @fprintf(ptr noundef %39, ptr noundef @.str.62, i64 noundef %42)
  %43 = load ptr, ptr %res.addr, align 8
  %corruptions = getelementptr inbounds %struct.BdrvCheckResult, ptr %43, i32 0, i32 0
  %44 = load i32, ptr %corruptions, align 8
  %inc36 = add i32 %44, 1
  store i32 %inc36, ptr %corruptions, align 8
  br label %if.end37

if.end37:                                         ; preds = %if.then32, %if.end28
  %45 = load ptr, ptr %l1_table, align 8
  %46 = load i32, ptr %i, align 4
  %idxprom38 = sext i32 %46 to i64
  %arrayidx39 = getelementptr i64, ptr %45, i64 %idxprom38
  %47 = load i64, ptr %arrayidx39, align 8
  %and40 = and i64 %47, 72057594037927424
  store i64 %and40, ptr %l2_offset, align 8
  %48 = load ptr, ptr %bs.addr, align 8
  %49 = load ptr, ptr %res.addr, align 8
  %50 = load ptr, ptr %refcount_table.addr, align 8
  %51 = load ptr, ptr %refcount_table_size.addr, align 8
  %52 = load i64, ptr %l2_offset, align 8
  %53 = load ptr, ptr %s, align 8
  %cluster_size = getelementptr inbounds %struct.BDRVQcow2State, ptr %53, i32 0, i32 1
  %54 = load i32, ptr %cluster_size, align 4
  %conv41 = sext i32 %54 to i64
  %call42 = call i32 @qcow2_inc_refcounts_imrt(ptr noundef %48, ptr noundef %49, ptr noundef %50, ptr noundef %51, i64 noundef %52, i64 noundef %conv41)
  store i32 %call42, ptr %ret, align 4
  %55 = load i32, ptr %ret, align 4
  %cmp43 = icmp slt i32 %55, 0
  br i1 %cmp43, label %if.then45, label %if.end46

if.then45:                                        ; preds = %if.end37
  %56 = load i32, ptr %ret, align 4
  store i32 %56, ptr %retval, align 4
  store i32 1, ptr %cleanup.dest.slot, align 4
  br label %cleanup

if.end46:                                         ; preds = %if.end37
  %57 = load ptr, ptr %s, align 8
  %58 = load i64, ptr %l2_offset, align 8
  %call47 = call i64 @offset_into_cluster(ptr noundef %57, i64 noundef %58)
  %tobool48 = icmp ne i64 %call47, 0
  br i1 %tobool48, label %if.then49, label %if.end53

if.then49:                                        ; preds = %if.end46
  %59 = load ptr, ptr @stderr, align 8
  %60 = load i64, ptr %l2_offset, align 8
  %call50 = call i32 (ptr, ptr, ...) @fprintf(ptr noundef %59, ptr noundef @.str.63, i64 noundef %60)
  %61 = load ptr, ptr %res.addr, align 8
  %corruptions51 = getelementptr inbounds %struct.BdrvCheckResult, ptr %61, i32 0, i32 0
  %62 = load i32, ptr %corruptions51, align 8
  %inc52 = add i32 %62, 1
  store i32 %inc52, ptr %corruptions51, align 8
  br label %if.end53

if.end53:                                         ; preds = %if.then49, %if.end46
  %63 = load ptr, ptr %bs.addr, align 8
  %64 = load ptr, ptr %res.addr, align 8
  %65 = load ptr, ptr %refcount_table.addr, align 8
  %66 = load ptr, ptr %refcount_table_size.addr, align 8
  %67 = load i64, ptr %l2_offset, align 8
  %68 = load i32, ptr %flags.addr, align 4
  %69 = load i32, ptr %fix.addr, align 4
  %70 = load i8, ptr %active.addr, align 1
  %tobool54 = trunc i8 %70 to i1
  %call55 = call i32 @check_refcounts_l2(ptr noundef %63, ptr noundef %64, ptr noundef %65, ptr noundef %66, i64 noundef %67, i32 noundef %68, i32 noundef %69, i1 noundef zeroext %tobool54)
  store i32 %call55, ptr %ret, align 4
  %71 = load i32, ptr %ret, align 4
  %cmp56 = icmp slt i32 %71, 0
  br i1 %cmp56, label %if.then58, label %if.end59

if.then58:                                        ; preds = %if.end53
  %72 = load i32, ptr %ret, align 4
  store i32 %72, ptr %retval, align 4
  store i32 1, ptr %cleanup.dest.slot, align 4
  br label %cleanup

if.end59:                                         ; preds = %if.end53
  br label %for.inc60

for.inc60:                                        ; preds = %if.end59, %if.then27
  %73 = load i32, ptr %i, align 4
  %inc61 = add i32 %73, 1
  store i32 %inc61, ptr %i, align 4
  br label %for.cond20, !llvm.loop !54

for.end62:                                        ; preds = %for.cond20
  store i32 0, ptr %retval, align 4
  store i32 1, ptr %cleanup.dest.slot, align 4
  br label %cleanup

cleanup:                                          ; preds = %for.end62, %if.then58, %if.then45, %if.then12, %if.then7, %if.then2, %if.then
  call void @g_autoptr_cleanup_generic_gfree(ptr noundef %l1_table)
  %74 = load i32, ptr %retval, align 4
  ret i32 %74
}