; Function Attrs: nounwind sspstrong uwtable
define internal range(i32 -2147483648, 1) i32 @check_refcounts_l1(ptr noundef %bs, ptr noundef captures(none) %res, ptr noundef captures(none) %refcount_table, ptr noundef captures(none) %refcount_table_size, i64 noundef %l1_table_offset, i32 noundef %l1_size, i32 noundef %flags, i32 noundef %fix, i1 noundef zeroext %active) #0 {
entry:
  %qiov.i = alloca %struct.QEMUIOVector, align 8
  %opaque = getelementptr inbounds nuw i8, ptr %bs, i64 24
  %0 = load ptr, ptr %opaque, align 8
  %conv = sext i32 %l1_size to i64
  %mul = shl nsw i64 %conv, 3
  %tobool.not = icmp eq i32 %l1_size, 0
  br i1 %tobool.not, label %cleanup, label %if.end

if.end:                                           ; preds = %entry
  %call = tail call i32 @qcow2_inc_refcounts_imrt(ptr noundef nonnull %bs, ptr noundef %res, ptr noundef %refcount_table, ptr noundef %refcount_table_size, i64 noundef %l1_table_offset, i64 noundef %mul)
  %cmp = icmp slt i32 %call, 0
  br i1 %cmp, label %cleanup, label %if.end3

if.end3:                                          ; preds = %if.end
  %call4 = tail call noalias ptr @g_try_malloc(i64 noundef %mul) #16
  %cmp5 = icmp eq ptr %call4, null
  br i1 %cmp5, label %cleanup.sink.split, label %if.end8

if.end8:                                          ; preds = %if.end3
  %file = getelementptr inbounds nuw i8, ptr %bs, i64 16840
  %1 = load ptr, ptr %file, align 8
  call void @llvm.lifetime.start.p0(i64 40, ptr nonnull %qiov.i)
  %2 = getelementptr inbounds nuw i8, ptr %qiov.i, i64 16
  %local_iov.i = getelementptr inbounds nuw i8, ptr %qiov.i, i64 24
  store ptr %local_iov.i, ptr %qiov.i, align 8
  %niov.i = getelementptr inbounds nuw i8, ptr %qiov.i, i64 8
  store i32 1, ptr %niov.i, align 8
  store i32 -1, ptr %2, align 8
  store ptr %call4, ptr %local_iov.i, align 8
  %iov_len.i = getelementptr inbounds nuw i8, ptr %qiov.i, i64 32
  store i64 %mul, ptr %iov_len.i, align 8
  call void @assert_bdrv_graph_readable() #17
  %call.i = call i32 @bdrv_co_preadv(ptr noundef %1, i64 noundef %l1_table_offset, i64 noundef %mul, ptr noundef nonnull %qiov.i, i32 noundef 0) #17
  call void @llvm.lifetime.end.p0(i64 40, ptr nonnull %qiov.i)
  %cmp10 = icmp slt i32 %call.i, 0
  br i1 %cmp10, label %if.then12, label %for.cond.preheader

for.cond.preheader:                               ; preds = %if.end8
  %cmp1742 = icmp sgt i32 %l1_size, 0
  br i1 %cmp1742, label %for.body.preheader, label %cleanup

for.body.preheader:                               ; preds = %for.cond.preheader
  %wide.trip.count = zext nneg i32 %l1_size to i64
  br label %for.body

if.then12:                                        ; preds = %if.end8
  %3 = load ptr, ptr @stderr, align 8
  %4 = call i64 @fwrite(ptr nonnull @.str.61, i64 39, i64 1, ptr %3) #19
  br label %cleanup.sink.split

for.body23.lr.ph:                                 ; preds = %for.body
  %cluster_size = getelementptr inbounds nuw i8, ptr %0, i64 4
  %wide.trip.count52 = zext nneg i32 %l1_size to i64
  br label %for.body23

for.body:                                         ; preds = %for.body.preheader, %for.body
  %indvars.iv = phi i64 [ 0, %for.body.preheader ], [ %indvars.iv.next, %for.body ]
  %arrayidx = getelementptr i64, ptr %call4, i64 %indvars.iv
  %5 = load i64, ptr %arrayidx, align 8
  %6 = call i64 @llvm.bswap.i64(i64 %5)
  store i64 %6, ptr %arrayidx, align 8
  %indvars.iv.next = add nuw nsw i64 %indvars.iv, 1
  %exitcond.not = icmp eq i64 %indvars.iv.next, %wide.trip.count
  br i1 %exitcond.not, label %for.body23.lr.ph, label %for.body, !llvm.loop !56

for.body23:                                       ; preds = %for.body23.lr.ph, %for.inc60
  %indvars.iv49 = phi i64 [ 0, %for.body23.lr.ph ], [ %indvars.iv.next50, %for.inc60 ]
  %arrayidx25 = getelementptr i64, ptr %call4, i64 %indvars.iv49
  %7 = load i64, ptr %arrayidx25, align 8
  %tobool26.not = icmp eq i64 %7, 0
  br i1 %tobool26.not, label %for.inc60, label %if.end28

if.end28:                                         ; preds = %for.body23
  %and = and i64 %7, 9151314442816848383
  %tobool31.not = icmp eq i64 %and, 0
  br i1 %tobool31.not, label %if.end37, label %if.then32

if.then32:                                        ; preds = %if.end28
  %8 = load ptr, ptr @stderr, align 8
  %call35 = call i32 (ptr, ptr, ...) @fprintf(ptr noundef %8, ptr noundef nonnull @.str.62, i64 noundef %7) #19
  %9 = load i32, ptr %res, align 8
  %inc36 = add i32 %9, 1
  store i32 %inc36, ptr %res, align 8
  %.pre = load i64, ptr %arrayidx25, align 8
  br label %if.end37

if.end37:                                         ; preds = %if.then32, %if.end28
  %10 = phi i64 [ %.pre, %if.then32 ], [ %7, %if.end28 ]
  %and40 = and i64 %10, 72057594037927424
  %11 = load i32, ptr %cluster_size, align 4
  %conv41 = sext i32 %11 to i64
  %call42 = call i32 @qcow2_inc_refcounts_imrt(ptr noundef nonnull %bs, ptr noundef %res, ptr noundef %refcount_table, ptr noundef %refcount_table_size, i64 noundef %and40, i64 noundef %conv41)
  %cmp43 = icmp slt i32 %call42, 0
  br i1 %cmp43, label %cleanup, label %if.end46

if.end46:                                         ; preds = %if.end37
  %.val = load i32, ptr %cluster_size, align 4
  %sub.i = add i32 %.val, -1
  %conv.i = sext i32 %sub.i to i64
  %and.i = and i64 %and40, %conv.i
  %tobool48.not = icmp eq i64 %and.i, 0
  br i1 %tobool48.not, label %if.end53, label %if.then49

if.then49:                                        ; preds = %if.end46
  %12 = load ptr, ptr @stderr, align 8
  %call50 = call i32 (ptr, ptr, ...) @fprintf(ptr noundef %12, ptr noundef nonnull @.str.63, i64 noundef %and40) #19
  %13 = load i32, ptr %res, align 8
  %inc52 = add i32 %13, 1
  store i32 %inc52, ptr %res, align 8
  br label %if.end53

if.end53:                                         ; preds = %if.then49, %if.end46
  %call55 = call i32 @check_refcounts_l2(ptr noundef nonnull %bs, ptr noundef %res, ptr noundef %refcount_table, ptr noundef %refcount_table_size, i64 noundef %and40, i32 noundef %flags, i32 noundef %fix, i1 noundef zeroext %active)
  %cmp56 = icmp slt i32 %call55, 0
  br i1 %cmp56, label %cleanup, label %for.inc60

for.inc60:                                        ; preds = %if.end53, %for.body23
  %indvars.iv.next50 = add nuw nsw i64 %indvars.iv49, 1
  %exitcond53.not = icmp eq i64 %indvars.iv.next50, %wide.trip.count52
  br i1 %exitcond53.not, label %cleanup, label %for.body23, !llvm.loop !57

cleanup.sink.split:                               ; preds = %if.end3, %if.then12
  %l1_table.0.ph = phi ptr [ %call4, %if.then12 ], [ null, %if.end3 ]
  %retval.0.ph = phi i32 [ %call.i, %if.then12 ], [ -12, %if.end3 ]
  %check_errors14 = getelementptr inbounds nuw i8, ptr %res, i64 8
  %14 = load i32, ptr %check_errors14, align 8
  %inc15 = add i32 %14, 1
  store i32 %inc15, ptr %check_errors14, align 8
  br label %cleanup

cleanup:                                          ; preds = %if.end37, %if.end53, %for.inc60, %cleanup.sink.split, %for.cond.preheader, %if.end, %entry
  %l1_table.0 = phi ptr [ null, %entry ], [ null, %if.end ], [ %call4, %for.cond.preheader ], [ %l1_table.0.ph, %cleanup.sink.split ], [ %call4, %for.inc60 ], [ %call4, %if.end53 ], [ %call4, %if.end37 ]
  %retval.0 = phi i32 [ 0, %entry ], [ %call, %if.end ], [ 0, %for.cond.preheader ], [ %retval.0.ph, %cleanup.sink.split ], [ %call42, %if.end37 ], [ %call55, %if.end53 ], [ 0, %for.inc60 ]
  call void @g_free(ptr noundef %l1_table.0) #17
  ret i32 %retval.0
}